; Function Attrs: nounwind uwtable
define hidden void @Wayland_DisplayInitDataDeviceManager(ptr noundef readonly captures(address) %0) local_unnamed_addr #0 {
  %2 = getelementptr inbounds nuw i8, ptr %0, i64 248
  %3 = getelementptr inbounds nuw i8, ptr %0, i64 256
  %.pn6 = load ptr, ptr %3, align 8
  %.not7 = icmp eq ptr %.pn6, %2
  br i1 %.not7, label %._crit_edge, label %.lr.ph

.lr.ph:                                           ; preds = %1, %.lr.ph
  %.pn8 = phi ptr [ %.pn, %.lr.ph ], [ %.pn6, %1 ]
  %.0 = getelementptr inbounds i8, ptr %.pn8, i64 -40
  tail call fastcc void @Wayland_SeatCreateDataDevice(ptr noundef nonnull %.0)
  %4 = getelementptr inbounds nuw i8, ptr %.pn8, i64 8
  %.pn = load ptr, ptr %4, align 8
  %.not = icmp eq ptr %.pn, %2
  br i1 %.not, label %._crit_edge, label %.lr.ph, !llvm.loop !12

._crit_edge:                                      ; preds = %.lr.ph, %1
  ret void
}